; Function Attrs: mustprogress uwtable
define hidden void @_ZN7nanogui8ComboBox18set_selected_indexEi(ptr noundef nonnull align 8 dereferenceable(428) %0, i32 noundef %1) local_unnamed_addr #0 align 2 {
  %3 = getelementptr inbounds i8, ptr %0, i64 368
  %4 = load ptr, ptr %3, align 8
  %5 = getelementptr inbounds i8, ptr %0, i64 376
  %6 = load ptr, ptr %5, align 8
  %7 = icmp eq ptr %4, %6
  br i1 %7, label %28, label %8

8:                                                ; preds = %2
  %9 = getelementptr inbounds i8, ptr %0, i64 336
  %10 = load ptr, ptr %9, align 8
  %11 = getelementptr inbounds i8, ptr %10, i64 64
  %12 = getelementptr inbounds i8, ptr %0, i64 424
  %13 = load i32, ptr %12, align 8
  %14 = sext i32 %13 to i64
  %15 = load ptr, ptr %11, align 8
  %16 = getelementptr inbounds ptr, ptr %15, i64 %14
  %17 = load ptr, ptr %16, align 8
  %18 = getelementptr inbounds i8, ptr %17, i64 184
  store i8 0, ptr %18, align 8
  %19 = sext i32 %1 to i64
  %20 = load ptr, ptr %11, align 8
  %21 = getelementptr inbounds ptr, ptr %20, i64 %19
  %22 = load ptr, ptr %21, align 8
  %23 = getelementptr inbounds i8, ptr %22, i64 184
  store i8 1, ptr %23, align 8
  store i32 %1, ptr %12, align 8
  %24 = load ptr, ptr %3, align 8
  %25 = getelementptr inbounds %"class.std::__cxx11::basic_string", ptr %24, i64 %19
  %26 = getelementptr inbounds i8, ptr %0, i64 144
  %27 = tail call noundef nonnull align 8 dereferenceable(32) ptr @_ZNSt7__cxx1112basic_stringIcSt11char_traitsIcESaIcEEaSERKS4_(ptr noundef nonnull align 8 dereferenceable(32) %26, ptr noundef nonnull align 8 dereferenceable(32) %25)
  br label %28

28:                                               ; preds = %2, %8
  ret void
}